target datalayout = "e-m:e-p270:32:32-p271:32:32-p272:64:64-i64:64-i128:128-f80:128-n8:16:32:64-S128"
target triple = "x86_64-pc-linux-gnu"

%class.ptr_vector = type { %class.vector.0 }
%class.vector.0 = type { ptr }
%class.obj_map = type { %class.core_hashtable }
%class.core_hashtable = type <{ ptr, i32, i32, i32, [4 x i8] }>
%class.obj_hashtable = type { %class.core_hashtable.base.22, [4 x i8] }
%class.core_hashtable.base.22 = type <{ ptr, i32, i32, i32 }>
%class.expr_sparse_mark = type { %class.obj_hashtable }
%class.ptr_vector.49 = type { %class.vector.50 }
%class.vector.50 = type { ptr }
%class.obj_hashtable.72 = type { %class.core_hashtable.base.76, [4 x i8] }
%class.core_hashtable.base.76 = type <{ ptr, i32, i32, i32 }>
%"class.datalog::rule_set" = type { ptr, ptr, %class.ref_vector.87, %class.obj_map.90, %"class.datalog::rule_dependencies", %class.scoped_ptr.100, %class.obj_hashtable.72, %class.obj_map, %class.obj_map, %class.ref_vector.101, %class.ptr_vector.49 }
%class.ref_vector.87 = type { %class.ref_vector_core.88 }
%class.ref_vector_core.88 = type { %class.ref_manager_wrapper.89, %class.ptr_vector.49 }
%class.ref_manager_wrapper.89 = type { ptr }
%class.obj_map.90 = type { %class.core_hashtable.91 }
%class.core_hashtable.91 = type <{ ptr, i32, i32, i32, [4 x i8] }>
%"class.datalog::rule_dependencies" = type { %class.obj_map.95, ptr, %class.ptr_vector, %class.expr_sparse_mark, %class.obj_hashtable.72 }
%class.obj_map.95 = type { %class.core_hashtable.96 }
%class.core_hashtable.96 = type <{ ptr, i32, i32, i32, [4 x i8] }>
%class.scoped_ptr.100 = type { ptr }
%class.ref_vector.101 = type { %class.ref_vector_core.102 }
%class.ref_vector_core.102 = type { %class.ref_manager_wrapper.103, %class.ptr_vector.104 }
%class.ref_manager_wrapper.103 = type { ptr }
%class.ptr_vector.104 = type { %class.vector.105 }
%class.vector.105 = type { ptr }

; Function Attrs: mustprogress nounwind uwtable
define linkonce_odr hidden noundef i32 @_ZNK6vectorIPN7datalog4ruleELb0EjE4sizeEv(ptr noundef nonnull align 8 dereferenceable(8) %0) #5 comdat align 2 {
  %2 = alloca i32, align 4
  %3 = alloca ptr, align 8
  store ptr %0, ptr %3, align 8, !tbaa !519
  %4 = load ptr, ptr %3, align 8
  %5 = getelementptr inbounds nuw %class.vector.50, ptr %4, i32 0, i32 0
  %6 = load ptr, ptr %5, align 8, !tbaa !521
  %7 = icmp eq ptr %6, null
  br i1 %7, label %8, label %9

8:                                                ; preds = %1
  store i32 0, ptr %2, align 4
  br label %14

9:                                                ; preds = %1
  %10 = getelementptr inbounds nuw %class.vector.50, ptr %4, i32 0, i32 0
  %11 = load ptr, ptr %10, align 8, !tbaa !521
  %12 = getelementptr inbounds i32, ptr %11, i64 -1
  %13 = load i32, ptr %12, align 4, !tbaa !50
  store i32 %13, ptr %2, align 4
  br label %14

14:                                               ; preds = %9, %8
  %15 = load i32, ptr %2, align 4
  ret i32 %15
}

; Function Attrs: mustprogress nounwind uwtable
define linkonce_odr hidden noundef ptr @_ZNK6vectorIPN7datalog4ruleELb0EjE4dataEv(ptr noundef nonnull align 8 dereferenceable(8) %0) #5 comdat align 2 {
  %2 = alloca ptr, align 8
  store ptr %0, ptr %2, align 8, !tbaa !519
  %3 = load ptr, ptr %2, align 8
  %4 = getelementptr inbounds nuw %class.vector.50, ptr %3, i32 0, i32 0
  %5 = load ptr, ptr %4, align 8, !tbaa !521
  ret ptr %5
}

; Function Attrs: mustprogress uwtable
define linkonce_odr hidden noundef i32 @_ZNK15ref_vector_coreIN7datalog4ruleE19ref_manager_wrapperIS1_NS0_12rule_managerEEE4sizeEv(ptr noundef nonnull align 8 dereferenceable(16) %0) #4 comdat align 2 {
  %2 = alloca ptr, align 8
  store ptr %0, ptr %2, align 8, !tbaa !517
  %3 = load ptr, ptr %2, align 8
  %4 = getelementptr inbounds nuw %class.ref_vector_core.88, ptr %3, i32 0, i32 1
  %5 = call noundef i32 @_ZNK6vectorIPN7datalog4ruleELb0EjE4sizeEv(ptr noundef nonnull align 8 dereferenceable(8) %4)
  ret i32 %5
}

; Function Attrs: mustprogress uwtable
define linkonce_odr hidden noundef ptr @_ZNK15ref_vector_coreIN7datalog4ruleE19ref_manager_wrapperIS1_NS0_12rule_managerEEE4dataEv(ptr noundef nonnull align 8 dereferenceable(16) %0) #4 comdat align 2 {
  %2 = alloca ptr, align 8
  store ptr %0, ptr %2, align 8, !tbaa !517
  %3 = load ptr, ptr %2, align 8
  %4 = getelementptr inbounds nuw %class.ref_vector_core.88, ptr %3, i32 0, i32 1
  %5 = call noundef ptr @_ZNK6vectorIPN7datalog4ruleELb0EjE4dataEv(ptr noundef nonnull align 8 dereferenceable(8) %4)
  ret ptr %5
}

; Function Attrs: mustprogress uwtable
define linkonce_odr hidden noundef ptr @_ZNK7datalog8rule_set3endEv(ptr noundef nonnull align 8 dereferenceable(248) %0) #4 comdat align 2 {
  %2 = alloca ptr, align 8
  store ptr %0, ptr %2, align 8, !tbaa !259
  %3 = load ptr, ptr %2, align 8
  %4 = getelementptr inbounds nuw %"class.datalog::rule_set", ptr %3, i32 0, i32 2
  %5 = call noundef ptr @_ZNK15ref_vector_coreIN7datalog4ruleE19ref_manager_wrapperIS1_NS0_12rule_managerEEE4dataEv(ptr noundef nonnull align 8 dereferenceable(16) %4)
  %6 = getelementptr inbounds nuw %"class.datalog::rule_set", ptr %3, i32 0, i32 2
  %7 = call noundef i32 @_ZNK15ref_vector_coreIN7datalog4ruleE19ref_manager_wrapperIS1_NS0_12rule_managerEEE4sizeEv(ptr noundef nonnull align 8 dereferenceable(16) %6)
  %8 = zext i32 %7 to i64
  %9 = getelementptr inbounds nuw ptr, ptr %5, i64 %8
  ret ptr %9
}

; Function Attrs: mustprogress uwtable
define linkonce_odr hidden noundef ptr @_ZNK7datalog8rule_set5beginEv(ptr noundef nonnull align 8 dereferenceable(248) %0) #4 comdat align 2 {
  %2 = alloca ptr, align 8
  store ptr %0, ptr %2, align 8, !tbaa !259
  %3 = load ptr, ptr %2, align 8
  %4 = getelementptr inbounds nuw %"class.datalog::rule_set", ptr %3, i32 0, i32 2
  %5 = call noundef ptr @_ZNK15ref_vector_coreIN7datalog4ruleE19ref_manager_wrapperIS1_NS0_12rule_managerEEE4dataEv(ptr noundef nonnull align 8 dereferenceable(16) %4)
  ret ptr %5
}

; Function Attrs: mustprogress uwtable
define hidden void @_ZN7datalog8mk_slice8saturateERKNS_8rule_setE(ptr noundef nonnull align 8 dereferenceable(168) %0, ptr noundef nonnull align 8 dereferenceable(248) %1) #4 align 2 {
  %3 = alloca ptr, align 8
  %4 = alloca ptr, align 8
  %5 = alloca i8, align 1
  %6 = alloca ptr, align 8
  %7 = alloca ptr, align 8
  %8 = alloca ptr, align 8
  %9 = alloca ptr, align 8
  store ptr %0, ptr %3, align 8, !tbaa !3
  store ptr %1, ptr %4, align 8, !tbaa !259
  %10 = load ptr, ptr %3, align 8
  call void @llvm.lifetime.start.p0(i64 1, ptr %5) #3
  store i8 1, ptr %5, align 1, !tbaa !51
  br label %11

11:                                               ; preds = %39, %2
  %12 = load i8, ptr %5, align 1, !tbaa !51, !range !53, !noundef !54
  %13 = trunc i8 %12 to i1
  br i1 %13, label %14, label %40

14:                                               ; preds = %11
  store i8 0, ptr %5, align 1, !tbaa !51
  call void @llvm.lifetime.start.p0(i64 8, ptr %6) #3
  %15 = load ptr, ptr %4, align 8, !tbaa !259
  store ptr %15, ptr %6, align 8, !tbaa !259
  call void @llvm.lifetime.start.p0(i64 8, ptr %7) #3
  %16 = load ptr, ptr %6, align 8, !tbaa !259
  %17 = call noundef ptr @_ZNK7datalog8rule_set5beginEv(ptr noundef nonnull align 8 dereferenceable(248) %16)
  store ptr %17, ptr %7, align 8, !tbaa !261
  call void @llvm.lifetime.start.p0(i64 8, ptr %8) #3
  %18 = load ptr, ptr %6, align 8, !tbaa !259
  %19 = call noundef ptr @_ZNK7datalog8rule_set3endEv(ptr noundef nonnull align 8 dereferenceable(248) %18)
  store ptr %19, ptr %8, align 8, !tbaa !261
  br label %20

20:                                               ; preds = %36, %14
  %21 = load ptr, ptr %7, align 8, !tbaa !261
  %22 = load ptr, ptr %8, align 8, !tbaa !261
  %23 = icmp ne ptr %21, %22
  br i1 %23, label %25, label %24

24:                                               ; preds = %20
  call void @llvm.lifetime.end.p0(i64 8, ptr %8) #3
  call void @llvm.lifetime.end.p0(i64 8, ptr %7) #3
  call void @llvm.lifetime.end.p0(i64 8, ptr %6) #3
  br label %39

25:                                               ; preds = %20
  call void @llvm.lifetime.start.p0(i64 8, ptr %9) #3
  %26 = load ptr, ptr %7, align 8, !tbaa !261
  %27 = load ptr, ptr %26, align 8, !tbaa !262
  store ptr %27, ptr %9, align 8, !tbaa !262
  %28 = load ptr, ptr %9, align 8, !tbaa !262
  %29 = call noundef zeroext i1 @_ZN7datalog8mk_slice10prune_ruleERNS_4ruleE(ptr noundef nonnull align 8 dereferenceable(168) %10, ptr noundef nonnull align 8 dereferenceable(80) %28)
  br i1 %29, label %33, label %30

30:                                               ; preds = %25
  %31 = load i8, ptr %5, align 1, !tbaa !51, !range !53, !noundef !54
  %32 = trunc i8 %31 to i1
  br label %33

33:                                               ; preds = %30, %25
  %34 = phi i1 [ true, %25 ], [ %32, %30 ]
  %35 = zext i1 %34 to i8
  store i8 %35, ptr %5, align 1, !tbaa !51
  call void @llvm.lifetime.end.p0(i64 8, ptr %9) #3
  br label %36

36:                                               ; preds = %33
  %37 = load ptr, ptr %7, align 8, !tbaa !261
  %38 = getelementptr inbounds nuw ptr, ptr %37, i32 1
  store ptr %38, ptr %7, align 8, !tbaa !261
  br label %20

39:                                               ; preds = %24
  br label %11, !llvm.loop !263

40:                                               ; preds = %11
  call void @llvm.lifetime.end.p0(i64 1, ptr %5) #3
  ret void
}