; Function Attrs: mustprogress uwtable
define hidden void @_ZN7datalog8mk_slice8saturateERKNS_8rule_setE(ptr noundef nonnull align 8 dereferenceable(168) %0, ptr noundef nonnull readonly align 8 captures(none) dereferenceable(248) %1) local_unnamed_addr #3 align 2 {
.critedge:
  %2 = getelementptr inbounds nuw i8, ptr %1, i64 24
  br label %3

._crit_edge:                                      ; preds = %.lr.ph
  br i1 %12, label %3, label %.critedge14

3:                                                ; preds = %.critedge, %._crit_edge
  %4 = load ptr, ptr %2, align 8, !tbaa !254
  %5 = icmp eq ptr %4, null
  br i1 %5, label %.critedge14, label %_ZNK7datalog8rule_set3endEv.exit

_ZNK7datalog8rule_set3endEv.exit:                 ; preds = %3
  %6 = getelementptr inbounds i8, ptr %4, i64 -4
  %7 = load i32, ptr %6, align 4, !tbaa !231
  %8 = zext i32 %7 to i64
  %9 = getelementptr inbounds nuw ptr, ptr %4, i64 %8
  %.not11 = icmp eq i32 %7, 0
  br i1 %.not11, label %.critedge14, label %.lr.ph, !llvm.loop !255

.lr.ph:                                           ; preds = %_ZNK7datalog8rule_set3endEv.exit, %.lr.ph
  %.113 = phi i1 [ %12, %.lr.ph ], [ false, %_ZNK7datalog8rule_set3endEv.exit ]
  %.01012 = phi ptr [ %13, %.lr.ph ], [ %4, %_ZNK7datalog8rule_set3endEv.exit ]
  %10 = load ptr, ptr %.01012, align 8, !tbaa !256
  %11 = tail call noundef zeroext i1 @_ZN7datalog8mk_slice10prune_ruleERNS_4ruleE(ptr noundef nonnull align 8 dereferenceable(168) %0, ptr noundef nonnull align 8 dereferenceable(80) %10)
  %12 = select i1 %11, i1 true, i1 %.113
  %13 = getelementptr inbounds nuw i8, ptr %.01012, i64 8
  %.not = icmp eq ptr %13, %9
  br i1 %.not, label %._crit_edge, label %.lr.ph, !llvm.loop !255

.critedge14:                                      ; preds = %3, %_ZNK7datalog8rule_set3endEv.exit, %._crit_edge
  ret void
}